; Function Attrs: nounwind uwtable
define hidden void @Curl_httpchunk_init(ptr noundef readnone captures(none) %0, ptr noundef initializes((8, 16), (48, 49)) %1, i1 noundef zeroext %2) local_unnamed_addr #0 {
  %4 = getelementptr inbounds nuw i8, ptr %1, i64 48
  store i8 0, ptr %4, align 8, !tbaa !3
  %5 = getelementptr inbounds nuw i8, ptr %1, i64 8
  store i32 0, ptr %5, align 8, !tbaa !12
  %6 = getelementptr inbounds nuw i8, ptr %1, i64 12
  store i32 0, ptr %6, align 4, !tbaa !13
  %7 = getelementptr inbounds nuw i8, ptr %1, i64 16
  tail call void @Curl_dyn_init(ptr noundef nonnull %7, i64 noundef 4096) #8
  %8 = getelementptr inbounds nuw i8, ptr %1, i64 66
  %9 = zext i1 %2 to i8
  %10 = load i8, ptr %8, align 2
  %11 = and i8 %10, -2
  %12 = or disjoint i8 %11, %9
  store i8 %12, ptr %8, align 2
  ret void
}